(dp0
S'output_tensor_length'
p1
I8
sS'classes'
p2
(lp3
Vdirection
p4
aVmeet
p5
aVnavigate
p6
aVself
p7
aVweather
p8
aVactions
p9
aVgreet
p10
aVclock
p11
asS'input_tensor_length'
p12
I943
sS'words'
p13
(lp14
(V's
p15
Vgo
p16
tp17
a(V's
p18
Vher
p19
tp20
a(V's
p21
Vhigh
p22
tp23
a(V's
p24
Vtak
p25
tp26
a(V's
p27
Vthe
p28
tp29
a(V's
p30
Vtim
p31
tp32
a(V's
p33
Vup
p34
tp35
a(V's
p36
Vyo
p37
tp38
a(V1
p39
Vher
p40
tp41
a(V2
p42
Vher
p43
tp44
a(Va
p45
Vash
p46
tp47
a(g45
Vashley
p48
tp49
a(g45
Vbathroom
p50
tp51
a(g45
Vblak
p52
tp53
a(g45
Vblock
p54
tp55
a(g45
Vblockchain
p56
tp57
a(g45
Vcarlo
p58
tp59
a(g45
Vcoordin
p60
tp61
a(g45
Vdad
p62
tp63
a(g45
Vdaddy
p64
tp65
a(g45
Vdan
p66
tp67
a(g45
Vdavid
p68
tp69
a(g45
Vev
p70
tp71
a(g45
Vfist
p72
tp73
a(g45
Vfront
p74
tp75
a(g45
Vgar
p76
tp77
a(g45
Vgen
p78
tp79
a(g45
Vglass
p80
tp81
a(g45
Vhigh
p82
tp83
a(g45
Vhom
p84
tp85
a(g45
Vhoney
p86
tp87
a(g45
Vhong
p88
tp89
a(g45
Vhug
p90
tp91
a(g45
Vide
p92
tp93
a(g45
Videa
p94
tp95
a(g45
Vinnov
p96
tp97
a(g45
Vjobin
p98
tp99
a(g45
Vjoe
p100
tp101
a(g45
Vjohn
p102
tp103
a(g45
Vjos
p104
tp105
a(g45
Vjudg
p106
tp107
a(g45
Vjuly
p108
tp109
a(g45
Vkat
p110
tp111
a(g45
Vkitch
p112
tp113
a(g45
Vlaur
p114
tp115
a(g45
Vliv
p116
tp117
a(g45
Vmast
p118
tp119
a(g45
Vmeet
p120
tp121
a(g45
Vnon
p122
tp123
a(g45
Vnonny
p124
tp125
a(g45
Vnurs
p126
tp127
a(g45
Voliv
p128
tp129
a(g45
Vpag
p130
tp131
a(g45
Vpaig
p132
tp133
a(g45
Vpantry
p134
tp135
a(g45
Vpar
p136
tp137
a(g45
Vpaul
p138
tp139
a(g45
Vphoto
p140
tp141
a(g45
Vpict
p142
tp143
a(g45
Vpol
p144
tp145
a(g45
Vrainco
p146
tp147
a(g45
Vreceiv
p148
tp149
a(g45
Vrest
p150
tp151
a(g45
Vrestroom
p152
tp153
a(g45
Vrobot
p154
tp155
a(g45
Vselfy
p156
tp157
a(g45
Vshak
p158
tp159
a(g45
Vshingleton
p160
tp161
a(g45
Vsof
p162
tp163
a(g45
Vsoph
p164
tp165
a(g45
Vtank
p166
tp167
a(g45
Vthink
p168
tp169
a(g45
Vtiz
p170
tp171
a(g45
Vtizian
p172
tp173
a(g45
Vtoilet
p174
tp175
a(g45
Vturn
p176
tp177
a(g45
Vu
p178
tp179
a(g45
Vus
p180
tp181
a(g45
Vv
p182
tp183
a(g45
Vverban
p184
tp185
a(g45
Vvirt
p186
tp187
a(g45
Vvr
p188
tp189
a(g45
Vwash
p190
tp191
a(g45
Vwashroom
p192
tp193
a(g45
Vwat
p194
tp195
a(g45
Vwil
p196
tp197
a(g45
Vwilliam
p198
tp199
a(g45
Vxun
p200
tp201
a(g45
Vyou
p202
tp203
a(g45
Vyoun
p204
tp205
a(Vam
p206
Vher
p207
tp208
a(Van
p209
Vappoint
p210
tp211
a(Van
p212
Vumbrell
p213
tp214
a(g210
Vwith
p215
tp216
a(Var
p217
Vher
p218
tp219
a(Var
p220
Vyou
p221
tp222
a(g46
Vher
p223
tp224
a(Vash
p225
Vthi
p226
tp227
a(Vashley
p228
Vblak
p229
tp230
a(g48
Vher
p231
tp232
a(Vashley
p233
Vthi
p234
tp235
a(g50
Vher
p236
tp237
a(Vbattery
p238
Vlevel
p239
tp240
a(Vbattery
p241
Vstat
p242
tp243
a(Vbianco
p244
Vher
p245
tp246
a(Vbianco
p247
Vthi
p248
tp249
a(Vbin
p250
Vher
p251
tp252
a(Vbin
p253
Vthi
p254
tp255
a(Vblak
p256
Vher
p257
tp258
a(Vblak
p259
Vthi
p260
tp261
a(Vblock
p262
Vchain
p263
tp264
a(g56
Vher
p265
tp266
a(Vblockchain
p267
Vman
p268
tp269
a(Vblockchain
p270
Vthi
p271
tp272
a(Vbox
p273
Vher
p274
tp275
a(Vbump
p276
Vchip
p277
tp278
a(Vcan
p279
Vi
p280
tp281
a(Vcan
p282
Vwe
p283
tp284
a(Vcan
p285
Vyou
p286
tp287
a(g58
Vher
p288
tp289
a(Vcarlo
p290
Vrey
p291
tp292
a(Vcarlo
p293
Vthi
p294
tp295
a(Vcarry
p296
g45
tp297
a(Vcarry
p298
g212
tp299
a(Vchain
p300
Vher
p301
tp302
a(Vchain
p303
Vthi
p304
tp305
a(g60
Vher
p306
tp307
a(Vcoordin
p308
Vthi
p309
tp310
a(g62
Vher
p311
tp312
a(Vdad
p313
Vthi
p314
tp315
a(g64
Vher
p316
tp317
a(Vdaddy
p318
Vthi
p319
tp320
a(g66
Vher
p321
tp322
a(Vdan
p323
Vthi
p324
tp325
a(Vdan
p326
Vturn
p327
tp328
a(g68
Vher
p329
tp330
a(Vdavid
p331
Vhong
p332
tp333
a(Vdavid
p334
Vthi
p335
tp336
a(Vday
p337
Vis
p338
tp339
a(Vday
p340
Vof
p341
tp342
a(Vdesk
p343
Vher
p344
tp345
a(Vdirect
p346
Vis
p347
tp348
a(Vdirect
p349
Vto
p350
tp351
a(Vdo
p352
g45
tp353
a(Vengin
p354
Vher
p355
tp356
a(Vengin
p357
Vthi
p358
tp359
a(Venrol
p360
Vme
p361
tp362
a(Venrol
p363
Vmy
p364
tp365
a(Vev
p366
Vher
p367
tp368
a(Vev
p369
Vman
p370
tp371
a(Vev
p372
Vthi
p373
tp374
a(Vexpery
p375
Vher
p376
tp377
a(Vexpery
p378
Vman
p379
tp380
a(Vexpery
p381
Vtest
p382
tp383
a(Vexpery
p384
Vthi
p385
tp386
a(Vfar
p387
Vis
p388
tp389
a(Vfind
p390
g45
tp391
a(Vfind
p392
Vsom
p393
tp394
a(Vfind
p395
Vthe
p396
tp397
a(g72
Vbump
p398
tp399
a(Vfist
p400
Vpump
p401
tp402
a(Vfiv
p403
Vchip
p404
tp405
a(Vflo
p406
Vis
p407
tp408
a(Vfront
p409
Vdesk
p410
tp411
a(Vgar
p412
g39
tp413
a(Vgar
p414
g42
tp415
a(Vgar
p416
Vher
p417
tp418
a(Vgar
p419
Von
p420
tp421
a(Vgar
p422
Vtwo
p423
tp424
a(Vgen
p425
Vman
p426
tp427
a(Vget
p428
g45
tp429
a(Vgild
p430
Vher
p431
tp432
a(Vgild
p433
Vthi
p434
tp435
a(Vglass
p436
Vof
p437
tp438
a(Vgo
p439
Vash
p440
tp441
a(Vgo
p442
Vashley
p443
tp444
a(Vgo
p445
Vblak
p446
tp447
a(Vgo
p448
Vblock
p449
tp450
a(Vgo
p451
Vblockchain
p452
tp453
a(Vgo
p454
Vcarlo
p455
tp456
a(Vgo
p457
Vcoordin
p458
tp459
a(Vgo
p460
Vdad
p461
tp462
a(Vgo
p463
Vdaddy
p464
tp465
a(Vgo
p466
Vdan
p467
tp468
a(Vgo
p469
Vdavid
p470
tp471
a(Vgo
p472
Vev
p473
tp474
a(Vgo
p475
Vgen
p476
tp477
a(Vgo
p478
Vhoney
p479
tp480
a(Vgo
p481
Vhong
p482
tp483
a(Vgo
p484
Vinnov
p485
tp486
a(Vgo
p487
Vjobin
p488
tp489
a(Vgo
p490
Vjoe
p491
tp492
a(Vgo
p493
Vjohn
p494
tp495
a(Vgo
p496
Vjos
p497
tp498
a(Vgo
p499
Vjudg
p500
tp501
a(Vgo
p502
Vjuly
p503
tp504
a(Vgo
p505
Vkat
p506
tp507
a(Vgo
p508
Vlab
p509
tp510
a(Vgo
p511
Vlaur
p512
tp513
a(Vgo
p514
Vliv
p515
tp516
a(Vgo
p517
Vmast
p518
tp519
a(Vgo
p520
Vmicro
p521
tp522
a(Vgo
p523
Vnon
p524
tp525
a(Vgo
p526
Vnonny
p527
tp528
a(Vgo
p529
Voliv
p530
tp531
a(Vgo
p532
Vpag
p533
tp534
a(Vgo
p535
Vpaig
p536
tp537
a(Vgo
p538
Vpaul
p539
tp540
a(Vgo
p541
Vpol
p542
tp543
a(Vgo
p544
Vrobot
p545
tp546
a(Vgo
p547
Vshingleton
p548
tp549
a(Vgo
p550
Vsof
p551
tp552
a(Vgo
p553
Vsoph
p554
tp555
a(Vgo
p556
Vtiz
p557
tp558
a(Vgo
p559
Vtizian
p560
tp561
a(Vgo
p562
Vto
p563
tp564
a(Vgo
p565
Vturn
p566
tp567
a(Vgo
p568
Vus
p569
tp570
a(Vgo
p571
Vux
p572
tp573
a(Vgo
p574
Vverban
p575
tp576
a(Vgo
p577
Vwil
p578
tp579
a(Vgo
p580
Vwilliam
p581
tp582
a(Vgo
p583
Vxun
p584
tp585
a(Vgo
p586
Vyoun
p587
tp588
a(Vgoing
p589
Vto
p590
tp591
a(Vgood
p592
Vafternoon
p593
tp594
a(Vgood
p595
Vev
p596
tp597
a(Vgood
p598
Vmorn
p599
tp600
a(Vgood
p601
Vnight
p602
tp603
a(Vguid
p604
Vme
p605
tp606
a(Vguid
p607
Vus
p608
tp609
a(Vhand
p610
Vchip
p611
tp612
a(Vhav
p613
g45
tp614
a(Vhav
p615
g209
tp616
a(Vhello
p617
Vchip
p618
tp619
a(Vhelp
p620
Vme
p621
tp622
a(Vhelp
p623
Vus
p624
tp625
a(g218
Vto
p626
tp627
a(Vhi
p628
V5
p629
tp630
a(g82
Vfiv
p631
tp632
a(g84
Vher
p633
tp634
a(g86
Vher
p635
tp636
a(Vhoney
p637
Vthi
p638
tp639
a(Vhong
p640
Vher
p641
tp642
a(Vhong
p643
Vthi
p644
tp645
a(Vhow
p646
g220
tp647
a(Vhow
p648
g387
tp649
a(Vhug
p650
Vyou
p651
tp652
a(Vi
p653
g206
tp654
a(g280
g298
tp655
a(g280
g395
tp656
a(g280
g428
tp657
a(Vi
p658
g615
tp659
a(g280
Vhug
p660
tp661
a(Vi
p662
Vmeet
p663
tp664
a(Vi
p665
Vsee
p666
tp667
a(g280
Vshak
p668
tp669
a(g280
Vtak
p670
tp671
a(g280
Vwant
p672
tp673
a(Vi
p674
Vwould
p675
tp676
a(Vide
p677
Vbox
p678
tp679
a(Videa
p680
Vbox
p681
tp682
a(Videa
p683
Vroom
p684
tp685
a(Vinnov
p686
Vher
p687
tp688
a(Vinnov
p689
Vlab
p690
tp691
a(Vinnov
p692
Vman
p693
tp694
a(Vinnov
p695
Vthi
p696
tp697
a(Vis
p698
Vash
p699
tp700
a(Vis
p701
Vashley
p702
tp703
a(Vis
p704
Vbathroom
p705
tp706
a(Vis
p707
Vblak
p708
tp709
a(Vis
p710
g262
tp711
a(Vis
p712
Vblockchain
p713
tp714
a(Vis
p715
Vcarlo
p716
tp717
a(Vis
p718
Vcoordin
p719
tp720
a(Vis
p721
Vdad
p722
tp723
a(Vis
p724
Vdaddy
p725
tp726
a(Vis
p727
Vdan
p728
tp729
a(Vis
p730
Vdavid
p731
tp732
a(Vis
p733
g369
tp734
a(Vis
p735
g409
tp736
a(Vis
p737
g419
tp738
a(Vis
p739
g425
tp740
a(Vis
p741
g436
tp742
a(Vis
p743
Vhom
p744
tp745
a(Vis
p746
Vhoney
p747
tp748
a(Vis
p749
Vhong
p750
tp751
a(Vis
p752
g677
tp753
a(Vis
p754
g680
tp755
a(Vis
p756
g692
tp757
a(Vis
p758
Vit
p759
tp760
a(Vis
p761
Vitwh
p762
tp763
a(Vis
p764
Vjobin
p765
tp766
a(Vis
p767
Vjoe
p768
tp769
a(Vis
p770
Vjohn
p771
tp772
a(Vis
p773
Vjos
p774
tp775
a(Vis
p776
Vjudg
p777
tp778
a(Vis
p779
Vjuly
p780
tp781
a(Vis
p782
Vkat
p783
tp784
a(Vis
p785
Vkitch
p786
tp787
a(Vis
p788
Vlaur
p789
tp790
a(Vis
p791
Vliv
p792
tp793
a(Vis
p794
Vmast
p795
tp796
a(Vis
p797
Vnon
p798
tp799
a(Vis
p800
Vnonny
p801
tp802
a(Vis
p803
Vnurs
p804
tp805
a(Vis
p806
Voliv
p807
tp808
a(Vis
p809
Vpag
p810
tp811
a(Vis
p812
Vpaig
p813
tp814
a(Vis
p815
Vpantry
p816
tp817
a(Vis
p818
Vpar
p819
tp820
a(Vis
p821
Vpaul
p822
tp823
a(Vis
p824
Vpol
p825
tp826
a(Vis
p827
Vreceiv
p828
tp829
a(Vis
p830
Vrest
p831
tp832
a(Vis
p833
Vrestroom
p834
tp835
a(Vis
p836
Vrobot
p837
tp838
a(Vis
p839
Vshingleton
p840
tp841
a(Vis
p842
Vsof
p843
tp844
a(Vis
p845
Vsoph
p846
tp847
a(Vis
p848
Vtank
p849
tp850
a(Vis
p851
Vthe
p852
tp853
a(Vis
p854
Vther
p855
tp856
a(g388
Vthink
p857
tp858
a(Vis
p859
Vtim
p860
tp861
a(Vis
p862
Vtiz
p863
tp864
a(Vis
p865
Vtizian
p866
tp867
a(Vis
p868
Vtoday
p869
tp870
a(Vis
p871
Vtoilet
p872
tp873
a(Vis
p874
Vturn
p875
tp876
a(Vis
p877
g178
tp878
a(Vis
p879
Vus
p880
tp881
a(Vis
p882
g182
tp883
a(Vis
p884
Vverban
p885
tp886
a(Vis
p887
Vvirt
p888
tp889
a(Vis
p890
Vvr
p891
tp892
a(Vis
p893
Vwash
p894
tp895
a(Vis
p896
Vwashroom
p897
tp898
a(Vis
p899
Vwat
p900
tp901
a(Vis
p902
Vwil
p903
tp904
a(Vis
p905
Vwilliam
p906
tp907
a(Vis
p908
Vxun
p909
tp910
a(Vis
p911
Vyo
p912
tp913
a(Vis
p914
Vyou
p915
tp916
a(Vis
p917
Vyoun
p918
tp919
a(g759
g589
tp920
a(Vit
p921
Vrainy
p922
tp923
a(Vit
p924
Vsunny
p925
tp926
a(g762
g340
tp927
a(g98
Vher
p928
tp929
a(Vjobin
p930
Vjos
p931
tp932
a(Vjobin
p933
Vthi
p934
tp935
a(g768
Vbin
p936
tp937
a(g102
Vher
p938
tp939
a(Vjohn
p940
Vthi
p941
tp942
a(Vjohn
p943
Vyoun
p944
tp945
a(g104
Vher
p946
tp947
a(Vjos
p948
Vthi
p949
tp950
a(Vjudg
p951
Vher
p952
tp953
a(Vjudg
p954
Vthi
p955
tp956
a(g108
Vher
p957
tp958
a(Vjuly
p959
Vshingleton
p960
tp961
a(Vjuly
p962
Vthi
p963
tp964
a(g110
Vher
p965
tp966
a(Vkat
p967
Vphillip
p968
tp969
a(Vkat
p970
Vthi
p971
tp972
a(g112
Vher
p973
tp974
a(Vklail
p975
Vher
p976
tp977
a(Vklail
p978
Vthi
p979
tp980
a(Vlab
p981
Vher
p982
tp983
a(g690
Vman
p984
tp985
a(Vlab
p986
Vthi
p987
tp988
a(Vlam
p989
Vher
p990
tp991
a(Vlam
p992
Vthi
p993
tp994
a(g114
Vher
p995
tp996
a(Vlaur
p997
Vpalm
p998
tp999
a(Vlaur
p1000
Vthi
p1001
tp1002
a(Vlet
p1003
g15
tp1004
a(Vlet
p1005
g352
tp1006
a(Vlet
p1007
Vme
p1008
tp1009
a(Vlet
p1010
Vus
p1011
tp1012
a(Vlik
p1013
Vto
p1014
tp1015
a(Vliv
p1016
Vher
p1017
tp1018
a(Vliv
p1019
Vlam
p1020
tp1021
a(Vliv
p1022
Vthi
p1023
tp1024
a(Vman
p1025
Vher
p1026
tp1027
a(Vman
p1028
Vthi
p1029
tp1030
a(g118
Vher
p1031
tp1032
a(Vmast
p1033
Vthi
p1034
tp1035
a(Vme
p1036
Vchip
p1037
tp1038
a(g1008
g650
tp1039
a(Vme
p1040
Vnext
p1041
tp1042
a(Vme
p1043
Vthe
p1044
tp1045
a(Vme
p1046
Vto
p1047
tp1048
a(g621
Vwith
p1049
tp1050
a(Vmeet
p1051
Vash
p1052
tp1053
a(Vmeet
p1054
Vashley
p1055
tp1056
a(Vmeet
p1057
Vblak
p1058
tp1059
a(Vmeet
p1060
Vblock
p1061
tp1062
a(Vmeet
p1063
Vblockchain
p1064
tp1065
a(Vmeet
p1066
Vcarlo
p1067
tp1068
a(Vmeet
p1069
Vcoordin
p1070
tp1071
a(Vmeet
p1072
Vdad
p1073
tp1074
a(Vmeet
p1075
Vdaddy
p1076
tp1077
a(Vmeet
p1078
Vdan
p1079
tp1080
a(Vmeet
p1081
Vdavid
p1082
tp1083
a(Vmeet
p1084
Vev
p1085
tp1086
a(Vmeet
p1087
Vgen
p1088
tp1089
a(Vmeet
p1090
Vhoney
p1091
tp1092
a(Vmeet
p1093
Vhong
p1094
tp1095
a(Vmeet
p1096
Vinnov
p1097
tp1098
a(Vmeet
p1099
Vjobin
p1100
tp1101
a(Vmeet
p1102
Vjoe
p1103
tp1104
a(Vmeet
p1105
Vjohn
p1106
tp1107
a(Vmeet
p1108
Vjos
p1109
tp1110
a(Vmeet
p1111
Vjudg
p1112
tp1113
a(Vmeet
p1114
Vjuly
p1115
tp1116
a(Vmeet
p1117
Vkat
p1118
tp1119
a(Vmeet
p1120
Vlab
p1121
tp1122
a(Vmeet
p1123
Vlaur
p1124
tp1125
a(Vmeet
p1126
Vliv
p1127
tp1128
a(Vmeet
p1129
Vmast
p1130
tp1131
a(Vmeet
p1132
Vmicro
p1133
tp1134
a(Vmeet
p1135
Vnon
p1136
tp1137
a(Vmeet
p1138
Vnonny
p1139
tp1140
a(Vmeet
p1141
Voliv
p1142
tp1143
a(Vmeet
p1144
Vpag
p1145
tp1146
a(Vmeet
p1147
Vpaig
p1148
tp1149
a(Vmeet
p1150
Vpaul
p1151
tp1152
a(Vmeet
p1153
Vpol
p1154
tp1155
a(Vmeet
p1156
Vrobot
p1157
tp1158
a(Vmeet
p1159
Vshingleton
p1160
tp1161
a(Vmeet
p1162
Vsof
p1163
tp1164
a(Vmeet
p1165
Vsoph
p1166
tp1167
a(Vmeet
p1168
Vtiz
p1169
tp1170
a(Vmeet
p1171
Vtizian
p1172
tp1173
a(Vmeet
p1174
Vturn
p1175
tp1176
a(Vmeet
p1177
Vus
p1178
tp1179
a(Vmeet
p1180
Vux
p1181
tp1182
a(Vmeet
p1183
Vverban
p1184
tp1185
a(Vmeet
p1186
Vwil
p1187
tp1188
a(Vmeet
p1189
Vwilliam
p1190
tp1191
a(g120
Vwith
p1192
tp1193
a(Vmeet
p1194
Vxun
p1195
tp1196
a(Vmeet
p1197
Vyoun
p1198
tp1199
a(Vmicro
p1200
Vthi
p1201
tp1202
a(Vmon
p1203
Vis
p1204
tp1205
a(Vmy
p1206
Vfac
p1207
tp1208
a(g1041
Vtim
p1209
tp1210
a(g122
Vher
p1211
tp1212
a(Vnon
p1213
Vthi
p1214
tp1215
a(g124
Vher
p1216
tp1217
a(Vnonny
p1218
Vklail
p1219
tp1220
a(Vnonny
p1221
Vthi
p1222
tp1223
a(g126
Vher
p1224
tp1225
a(Vof
p1226
Vthe
p1227
tp1228
a(g437
Vwat
p1229
tp1230
a(g128
Vher
p1231
tp1232
a(Voliv
p1233
Vthi
p1234
tp1235
a(Von
p1236
Vher
p1237
tp1238
a(g130
Vher
p1239
tp1240
a(Vpag
p1241
Vthi
p1242
tp1243
a(g132
Vher
p1244
tp1245
a(Vpaig
p1246
Vtalbot
p1247
tp1248
a(Vpaig
p1249
Vthi
p1250
tp1251
a(Vpalm
p1252
Vher
p1253
tp1254
a(Vpalm
p1255
Vthi
p1256
tp1257
a(g134
Vher
p1258
tp1259
a(Vpar
p1260
V's
p1261
tp1262
a(Vpar
p1263
Vher
p1264
tp1265
a(g819
Vroom
p1266
tp1267
a(g138
Vher
p1268
tp1269
a(Vpaul
p1270
Vthi
p1271
tp1272
a(Vphillip
p1273
Vher
p1274
tp1275
a(Vphillip
p1276
Vthi
p1277
tp1278
a(g142
Vtogeth
p1279
tp1280
a(Vpleas
p1281
g604
tp1282
a(Vplug
p1283
Vin
p1284
tp1285
a(g144
Vher
p1286
tp1287
a(Vpol
p1288
Vthi
p1289
tp1290
a(Vr
p1291
Vher
p1292
tp1293
a(Vreal
p1294
Vher
p1295
tp1296
a(g148
Vher
p1297
tp1298
a(Vreg
p1299
Vme
p1300
tp1301
a(Vreg
p1302
Vmy
p1303
tp1304
a(Vrememb
p1305
g1036
tp1306
a(Vrememb
p1307
g1206
tp1308
a(g831
Vroom
p1309
tp1310
a(g152
Vher
p1311
tp1312
a(Vrey
p1313
Vher
p1314
tp1315
a(Vrey
p1316
Vthi
p1317
tp1318
a(Vrobot
p1319
Vengin
p1320
tp1321
a(g154
Vher
p1322
tp1323
a(Vrobot
p1324
Vman
p1325
tp1326
a(Vrobot
p1327
Vthi
p1328
tp1329
a(Vroom
p1330
Vher
p1331
tp1332
a(Vsee
p1333
Vash
p1334
tp1335
a(Vsee
p1336
Vashley
p1337
tp1338
a(Vsee
p1339
Vblak
p1340
tp1341
a(Vsee
p1342
Vblock
p1343
tp1344
a(Vsee
p1345
Vblockchain
p1346
tp1347
a(Vsee
p1348
Vcarlo
p1349
tp1350
a(Vsee
p1351
Vcoordin
p1352
tp1353
a(Vsee
p1354
Vdad
p1355
tp1356
a(Vsee
p1357
Vdaddy
p1358
tp1359
a(Vsee
p1360
Vdan
p1361
tp1362
a(Vsee
p1363
Vdavid
p1364
tp1365
a(Vsee
p1366
Vev
p1367
tp1368
a(Vsee
p1369
Vgen
p1370
tp1371
a(Vsee
p1372
Vhoney
p1373
tp1374
a(Vsee
p1375
Vhong
p1376
tp1377
a(Vsee
p1378
Vinnov
p1379
tp1380
a(Vsee
p1381
Vjobin
p1382
tp1383
a(Vsee
p1384
Vjoe
p1385
tp1386
a(Vsee
p1387
Vjohn
p1388
tp1389
a(Vsee
p1390
Vjos
p1391
tp1392
a(Vsee
p1393
Vjudg
p1394
tp1395
a(Vsee
p1396
Vjuly
p1397
tp1398
a(Vsee
p1399
Vkat
p1400
tp1401
a(Vsee
p1402
Vlab
p1403
tp1404
a(Vsee
p1405
Vlaur
p1406
tp1407
a(Vsee
p1408
Vliv
p1409
tp1410
a(Vsee
p1411
Vmast
p1412
tp1413
a(Vsee
p1414
Vmicro
p1415
tp1416
a(Vsee
p1417
Vnon
p1418
tp1419
a(Vsee
p1420
Vnonny
p1421
tp1422
a(Vsee
p1423
Voliv
p1424
tp1425
a(Vsee
p1426
Vpag
p1427
tp1428
a(Vsee
p1429
Vpaig
p1430
tp1431
a(Vsee
p1432
Vpaul
p1433
tp1434
a(Vsee
p1435
Vpol
p1436
tp1437
a(Vsee
p1438
Vrobot
p1439
tp1440
a(Vsee
p1441
Vshingleton
p1442
tp1443
a(Vsee
p1444
Vsof
p1445
tp1446
a(Vsee
p1447
Vsoph
p1448
tp1449
a(Vsee
p1450
Vtiz
p1451
tp1452
a(Vsee
p1453
Vtizian
p1454
tp1455
a(Vsee
p1456
Vturn
p1457
tp1458
a(Vsee
p1459
Vus
p1460
tp1461
a(Vsee
p1462
Vux
p1463
tp1464
a(Vsee
p1465
Vverban
p1466
tp1467
a(Vsee
p1468
Vwil
p1469
tp1470
a(Vsee
p1471
Vwilliam
p1472
tp1473
a(Vsee
p1474
Vxun
p1475
tp1476
a(Vsee
p1477
Vyoun
p1478
tp1479
a(Vselfy
p1480
Vchip
p1481
tp1482
a(Vselfy
p1483
Vwith
p1484
tp1485
a(Vshak
p1486
g610
tp1487
a(Vshingleton
p1488
Vher
p1489
tp1490
a(Vshingleton
p1491
Vthi
p1492
tp1493
a(Vshould
p1494
g280
tp1495
a(Vshould
p1496
Vwe
p1497
tp1498
a(Vshow
p1499
g1043
tp1500
a(Vshow
p1501
Vus
p1502
tp1503
a(g162
Vher
p1504
tp1505
a(Vsof
p1506
Vthi
p1507
tp1508
a(Vsom
p1509
Vash
p1510
tp1511
a(Vsom
p1512
Vashley
p1513
tp1514
a(Vsom
p1515
Vbathroom
p1516
tp1517
a(Vsom
p1518
Vblak
p1519
tp1520
a(Vsom
p1521
Vblock
p1522
tp1523
a(Vsom
p1524
Vblockchain
p1525
tp1526
a(Vsom
p1527
Vcarlo
p1528
tp1529
a(Vsom
p1530
Vcoordin
p1531
tp1532
a(Vsom
p1533
Vdad
p1534
tp1535
a(Vsom
p1536
Vdaddy
p1537
tp1538
a(Vsom
p1539
Vdan
p1540
tp1541
a(Vsom
p1542
Vdavid
p1543
tp1544
a(Vsom
p1545
Vev
p1546
tp1547
a(Vsom
p1548
Vfront
p1549
tp1550
a(Vsom
p1551
Vgar
p1552
tp1553
a(Vsom
p1554
Vgen
p1555
tp1556
a(Vsom
p1557
Vglass
p1558
tp1559
a(Vsom
p1560
Vhom
p1561
tp1562
a(Vsom
p1563
Vhoney
p1564
tp1565
a(Vsom
p1566
Vhong
p1567
tp1568
a(Vsom
p1569
Vide
p1570
tp1571
a(Vsom
p1572
Videa
p1573
tp1574
a(Vsom
p1575
Vinnov
p1576
tp1577
a(Vsom
p1578
Vjobin
p1579
tp1580
a(Vsom
p1581
Vjoe
p1582
tp1583
a(Vsom
p1584
Vjohn
p1585
tp1586
a(Vsom
p1587
Vjos
p1588
tp1589
a(Vsom
p1590
Vjudg
p1591
tp1592
a(Vsom
p1593
Vjuly
p1594
tp1595
a(Vsom
p1596
Vkat
p1597
tp1598
a(Vsom
p1599
Vkitch
p1600
tp1601
a(Vsom
p1602
Vlaur
p1603
tp1604
a(Vsom
p1605
Vliv
p1606
tp1607
a(Vsom
p1608
Vmast
p1609
tp1610
a(Vsom
p1611
Vnon
p1612
tp1613
a(Vsom
p1614
Vnonny
p1615
tp1616
a(Vsom
p1617
Vnurs
p1618
tp1619
a(Vsom
p1620
Voliv
p1621
tp1622
a(Vsom
p1623
Vpag
p1624
tp1625
a(Vsom
p1626
Vpaig
p1627
tp1628
a(Vsom
p1629
Vpantry
p1630
tp1631
a(Vsom
p1632
Vpar
p1633
tp1634
a(Vsom
p1635
Vpaul
p1636
tp1637
a(Vsom
p1638
Vpol
p1639
tp1640
a(Vsom
p1641
Vreceiv
p1642
tp1643
a(Vsom
p1644
Vrest
p1645
tp1646
a(Vsom
p1647
Vrestroom
p1648
tp1649
a(Vsom
p1650
Vrobot
p1651
tp1652
a(Vsom
p1653
Vshingleton
p1654
tp1655
a(Vsom
p1656
Vsof
p1657
tp1658
a(Vsom
p1659
Vsoph
p1660
tp1661
a(Vsom
p1662
Vtank
p1663
tp1664
a(g393
Vthink
p1665
tp1666
a(Vsom
p1667
Vtiz
p1668
tp1669
a(Vsom
p1670
Vtizian
p1671
tp1672
a(Vsom
p1673
Vtoilet
p1674
tp1675
a(Vsom
p1676
Vturn
p1677
tp1678
a(Vsom
p1679
g178
tp1680
a(Vsom
p1681
Vus
p1682
tp1683
a(Vsom
p1684
g182
tp1685
a(Vsom
p1686
Vverban
p1687
tp1688
a(Vsom
p1689
Vvirt
p1690
tp1691
a(Vsom
p1692
Vvr
p1693
tp1694
a(Vsom
p1695
Vwash
p1696
tp1697
a(Vsom
p1698
Vwashroom
p1699
tp1700
a(Vsom
p1701
Vwat
p1702
tp1703
a(Vsom
p1704
Vwil
p1705
tp1706
a(Vsom
p1707
Vwilliam
p1708
tp1709
a(Vsom
p1710
Vxun
p1711
tp1712
a(Vsom
p1713
Vyou
p1714
tp1715
a(Vsom
p1716
Vyoun
p1717
tp1718
a(Vsoph
p1719
Vgild
p1720
tp1721
a(g164
Vher
p1722
tp1723
a(Vsoph
p1724
Vthi
p1725
tp1726
a(Vtak
p1727
g45
tp1728
a(Vtak
p1729
Vme
p1730
tp1731
a(Vtak
p1732
Vus
p1733
tp1734
a(Vtalbot
p1735
Vher
p1736
tp1737
a(Vtalbot
p1738
Vthi
p1739
tp1740
a(Vtank
p1741
Vher
p1742
tp1743
a(Vtel
p1744
Vme
p1745
tp1746
a(Vtemp
p1747
Voutsid
p1748
tp1749
a(Vtest
p1750
Vher
p1751
tp1752
a(Vtest
p1753
Vthi
p1754
tp1755
a(Vthank
p1756
Vyou
p1757
tp1758
a(Vthe
p1759
Vash
p1760
tp1761
a(Vthe
p1762
Vashley
p1763
tp1764
a(Vthe
p1765
Vbathroom
p1766
tp1767
a(Vthe
p1768
Vblak
p1769
tp1770
a(Vthe
p1771
Vblock
p1772
tp1773
a(Vthe
p1774
Vblockchain
p1775
tp1776
a(Vthe
p1777
Vcarlo
p1778
tp1779
a(Vthe
p1780
Vcoordin
p1781
tp1782
a(Vthe
p1783
Vdad
p1784
tp1785
a(Vthe
p1786
Vdaddy
p1787
tp1788
a(Vthe
p1789
Vdan
p1790
tp1791
a(Vthe
p1792
Vdavid
p1793
tp1794
a(g1227
g337
tp1795
a(Vthe
p1796
g349
tp1797
a(Vthe
p1798
Vev
p1799
tp1800
a(Vthe
p1801
Vfront
p1802
tp1803
a(Vthe
p1804
Vgar
p1805
tp1806
a(Vthe
p1807
Vgen
p1808
tp1809
a(Vthe
p1810
Vglass
p1811
tp1812
a(Vthe
p1813
Vhom
p1814
tp1815
a(Vthe
p1816
Vhoney
p1817
tp1818
a(Vthe
p1819
Vhong
p1820
tp1821
a(Vthe
p1822
Vide
p1823
tp1824
a(Vthe
p1825
Videa
p1826
tp1827
a(Vthe
p1828
Vinnov
p1829
tp1830
a(Vthe
p1831
Vjobin
p1832
tp1833
a(Vthe
p1834
Vjoe
p1835
tp1836
a(Vthe
p1837
Vjohn
p1838
tp1839
a(Vthe
p1840
Vjos
p1841
tp1842
a(Vthe
p1843
Vjudg
p1844
tp1845
a(Vthe
p1846
Vjuly
p1847
tp1848
a(Vthe
p1849
Vkat
p1850
tp1851
a(Vthe
p1852
Vkitch
p1853
tp1854
a(Vthe
p1855
Vlab
p1856
tp1857
a(Vthe
p1858
Vlaur
p1859
tp1860
a(Vthe
p1861
Vliv
p1862
tp1863
a(Vthe
p1864
Vmast
p1865
tp1866
a(Vthe
p1867
Vmicro
p1868
tp1869
a(Vthe
p1870
Vnon
p1871
tp1872
a(Vthe
p1873
Vnonny
p1874
tp1875
a(Vthe
p1876
Vnurs
p1877
tp1878
a(Vthe
p1879
Voliv
p1880
tp1881
a(Vthe
p1882
Vpag
p1883
tp1884
a(Vthe
p1885
Vpaig
p1886
tp1887
a(Vthe
p1888
Vpantry
p1889
tp1890
a(Vthe
p1891
Vpar
p1892
tp1893
a(Vthe
p1894
Vpaul
p1895
tp1896
a(Vthe
p1897
Vpol
p1898
tp1899
a(Vthe
p1900
Vreceiv
p1901
tp1902
a(Vthe
p1903
Vrest
p1904
tp1905
a(Vthe
p1906
Vrestroom
p1907
tp1908
a(Vthe
p1909
Vrobot
p1910
tp1911
a(Vthe
p1912
Vshingleton
p1913
tp1914
a(Vthe
p1915
Vsof
p1916
tp1917
a(Vthe
p1918
Vsoph
p1919
tp1920
a(Vthe
p1921
Vtank
p1922
tp1923
a(Vthe
p1924
g1747
tp1925
a(g852
Vthink
p1926
tp1927
a(g28
Vtim
p1928
tp1929
a(Vthe
p1930
Vtiz
p1931
tp1932
a(Vthe
p1933
Vtizian
p1934
tp1935
a(Vthe
p1936
Vtoilet
p1937
tp1938
a(Vthe
p1939
Vturn
p1940
tp1941
a(Vthe
p1942
g178
tp1943
a(Vthe
p1944
Vus
p1945
tp1946
a(Vthe
p1947
Vux
p1948
tp1949
a(Vthe
p1950
g182
tp1951
a(Vthe
p1952
Vverban
p1953
tp1954
a(Vthe
p1955
Vvirt
p1956
tp1957
a(Vthe
p1958
Vvr
p1959
tp1960
a(Vthe
p1961
Vwash
p1962
tp1963
a(Vthe
p1964
Vwashroom
p1965
tp1966
a(Vthe
p1967
Vwat
p1968
tp1969
a(Vthe
p1970
Vway
p1971
tp1972
a(Vthe
p1973
Vweath
p1974
tp1975
a(Vthe
p1976
Vweek
p1977
tp1978
a(Vthe
p1979
Vwil
p1980
tp1981
a(Vthe
p1982
Vwilliam
p1983
tp1984
a(Vthe
p1985
Vxun
p1986
tp1987
a(Vthe
p1988
Vyou
p1989
tp1990
a(Vthe
p1991
Vyoun
p1992
tp1993
a(g855
g45
tp1994
a(Vthi
p1995
Vtim
p1996
tp1997
a(g857
Vtank
p1998
tp1999
a(Vtim
p2000
Vis
p2001
tp2002
a(Vtim
p2003
Vnow
p2004
tp2005
a(Vtim
p2006
g1226
tp2007
a(g170
Vher
p2008
tp2009
a(Vtiz
p2010
Vthi
p2011
tp2012
a(Vtizian
p2013
Vbianco
p2014
tp2015
a(g172
Vher
p2016
tp2017
a(Vtizian
p2018
Vthi
p2019
tp2020
a(Vto
p2021
Vash
p2022
tp2023
a(Vto
p2024
Vashley
p2025
tp2026
a(Vto
p2027
Vbathroom
p2028
tp2029
a(Vto
p2030
Vblak
p2031
tp2032
a(Vto
p2033
Vblock
p2034
tp2035
a(Vto
p2036
Vblockchain
p2037
tp2038
a(Vto
p2039
Vcarlo
p2040
tp2041
a(Vto
p2042
Vcoordin
p2043
tp2044
a(Vto
p2045
Vdad
p2046
tp2047
a(Vto
p2048
Vdaddy
p2049
tp2050
a(Vto
p2051
Vdan
p2052
tp2053
a(Vto
p2054
Vdavid
p2055
tp2056
a(Vto
p2057
g363
tp2058
a(Vto
p2059
Vev
p2060
tp2061
a(Vto
p2062
Vfist
p2063
tp2064
a(Vto
p2065
Vfront
p2066
tp2067
a(Vto
p2068
Vgar
p2069
tp2070
a(Vto
p2071
Vgen
p2072
tp2073
a(Vto
p2074
Vglass
p2075
tp2076
a(Vto
p2077
Vhigh-five
p2078
tp2079
a(Vto
p2080
Vhom
p2081
tp2082
a(Vto
p2083
Vhoney
p2084
tp2085
a(Vto
p2086
Vhong
p2087
tp2088
a(Vto
p2089
Vhug
p2090
tp2091
a(Vto
p2092
Vide
p2093
tp2094
a(Vto
p2095
Videa
p2096
tp2097
a(Vto
p2098
Vinnov
p2099
tp2100
a(Vto
p2101
Vjobin
p2102
tp2103
a(Vto
p2104
Vjoe
p2105
tp2106
a(Vto
p2107
Vjohn
p2108
tp2109
a(Vto
p2110
Vjos
p2111
tp2112
a(Vto
p2113
Vjudg
p2114
tp2115
a(Vto
p2116
Vjuly
p2117
tp2118
a(Vto
p2119
Vkat
p2120
tp2121
a(Vto
p2122
Vkitch
p2123
tp2124
a(Vto
p2125
Vlab
p2126
tp2127
a(Vto
p2128
Vlaur
p2129
tp2130
a(Vto
p2131
Vliv
p2132
tp2133
a(Vto
p2134
Vmast
p2135
tp2136
a(g626
g1180
tp2137
a(Vto
p2138
Vmicro
p2139
tp2140
a(Vto
p2141
Vnon
p2142
tp2143
a(Vto
p2144
Vnonny
p2145
tp2146
a(Vto
p2147
Vnurs
p2148
tp2149
a(Vto
p2150
Voliv
p2151
tp2152
a(Vto
p2153
Vpag
p2154
tp2155
a(Vto
p2156
Vpaig
p2157
tp2158
a(Vto
p2159
Vpantry
p2160
tp2161
a(Vto
p2162
Vpar
p2163
tp2164
a(Vto
p2165
Vpaul
p2166
tp2167
a(Vto
p2168
Vpol
p2169
tp2170
a(g590
Vrain
p2171
tp2172
a(Vto
p2173
Vreceiv
p2174
tp2175
a(Vto
p2176
Vrememb
p2177
tp2178
a(Vto
p2179
Vrest
p2180
tp2181
a(Vto
p2182
Vrestroom
p2183
tp2184
a(Vto
p2185
Vrobot
p2186
tp2187
a(Vto
p2188
g1462
tp2189
a(Vto
p2190
Vshingleton
p2191
tp2192
a(Vto
p2193
Vsof
p2194
tp2195
a(Vto
p2196
Vsoph
p2197
tp2198
a(Vto
p2199
Vtank
p2200
tp2201
a(Vto
p2202
Vthe
p2203
tp2204
a(Vto
p2205
Vthink
p2206
tp2207
a(Vto
p2208
Vtiz
p2209
tp2210
a(Vto
p2211
Vtizian
p2212
tp2213
a(Vto
p2214
Vtoilet
p2215
tp2216
a(Vto
p2217
Vturn
p2218
tp2219
a(Vto
p2220
g178
tp2221
a(Vto
p2222
Vus
p2223
tp2224
a(Vto
p2225
Vux
p2226
tp2227
a(Vto
p2228
g182
tp2229
a(Vto
p2230
Vverban
p2231
tp2232
a(Vto
p2233
Vvirt
p2234
tp2235
a(Vto
p2236
Vvr
p2237
tp2238
a(Vto
p2239
Vwash
p2240
tp2241
a(Vto
p2242
Vwashroom
p2243
tp2244
a(Vto
p2245
Vwat
p2246
tp2247
a(Vto
p2248
Vwil
p2249
tp2250
a(Vto
p2251
Vwilliam
p2252
tp2253
a(Vto
p2254
Vxun
p2255
tp2256
a(Vto
p2257
Vyou
p2258
tp2259
a(Vto
p2260
Vyoun
p2261
tp2262
a(Vtoday
p2263
Vdat
p2264
tp2265
a(g174
Vher
p2266
tp2267
a(g176
Vher
p2268
tp2269
a(Vturn
p2270
Vthi
p2271
tp2272
a(Vtwo
p2273
Vher
p2274
tp2275
a(g178
Vx
p2276
tp2277
a(Vus
p2278
g381
tp2279
a(g1011
Vgo
p2280
tp2281
a(Vus
p2282
Vlab
p2283
tp2284
a(Vus
p2285
g1727
tp2286
a(g880
Vtest
p2287
tp2288
a(g1502
g1970
tp2289
a(Vus
p2290
g2225
tp2291
a(g624
Vwith
p2292
tp2293
a(Vux
p2294
g1995
tp2295
a(g182
g1291
tp2296
a(g184
Vher
p2297
tp2298
a(Vverban
p2299
Vthi
p2300
tp2301
a(g888
Vreal
p2302
tp2303
a(g188
Vher
p2304
tp2305
a(Vwang
p2306
Vher
p2307
tp2308
a(Vwang
p2309
Vthi
p2310
tp2311
a(g672
g45
tp2312
a(Vwant
p2313
g2089
tp2314
a(Vwant
p2315
Vyou
p2316
tp2317
a(g894
Vroom
p2318
tp2319
a(g192
Vher
p2320
tp2321
a(g194
Vher
p2322
tp2323
a(Vway
p2324
Vis
p2325
tp2326
a(Vway
p2327
g2202
tp2328
a(Vwe
p2329
g217
tp2330
a(g1497
g296
tp2331
a(Vwe
p2332
g562
tp2333
a(Vwe
p2334
Vhav
p2335
tp2336
a(g283
Vmeet
p2337
tp2338
a(Vwe
p2339
Vsee
p2340
tp2341
a(Vwe
p2342
Vwould
p2343
tp2344
a(g1974
Vlik
p2345
tp2346
a(g1977
Vis
p2347
tp2348
a(Vwhat
p2349
g36
tp2350
a(Vwhat
p2351
Vday
p2352
tp2353
a(Vwhat
p2354
g911
tp2355
a(Vwhat
p2356
g1203
tp2357
a(Vwhat
p2358
g2000
tp2359
a(Vwhat
p2360
Vyear
p2361
tp2362
a(Vwher
p2363
Var
p2364
tp2365
a(Vwher
p2366
g279
tp2367
a(Vwher
p2368
Vis
p2369
tp2370
a(Vwhich
p2371
g346
tp2372
a(Vwhich
p2373
g406
tp2374
a(Vwhich
p2375
g2324
tp2376
a(Vwho
p2377
Var
p2378
tp2379
a(g196
Vher
p2380
tp2381
a(Vwil
p2382
Vthi
p2383
tp2384
a(g198
Vher
p2385
tp2386
a(Vwilliam
p2387
Vjudg
p2388
tp2389
a(Vwilliam
p2390
Vthi
p2391
tp2392
a(Vwith
p2393
Vash
p2394
tp2395
a(Vwith
p2396
Vashley
p2397
tp2398
a(Vwith
p2399
Vblak
p2400
tp2401
a(Vwith
p2402
Vblock
p2403
tp2404
a(Vwith
p2405
Vblockchain
p2406
tp2407
a(Vwith
p2408
Vcarlo
p2409
tp2410
a(Vwith
p2411
Vcoordin
p2412
tp2413
a(Vwith
p2414
Vdad
p2415
tp2416
a(Vwith
p2417
Vdaddy
p2418
tp2419
a(Vwith
p2420
Vdan
p2421
tp2422
a(Vwith
p2423
Vdavid
p2424
tp2425
a(Vwith
p2426
Vev
p2427
tp2428
a(Vwith
p2429
Vgen
p2430
tp2431
a(Vwith
p2432
Vhoney
p2433
tp2434
a(Vwith
p2435
Vhong
p2436
tp2437
a(Vwith
p2438
Vinnov
p2439
tp2440
a(Vwith
p2441
Vjobin
p2442
tp2443
a(Vwith
p2444
Vjoe
p2445
tp2446
a(Vwith
p2447
Vjohn
p2448
tp2449
a(Vwith
p2450
Vjos
p2451
tp2452
a(Vwith
p2453
Vjudg
p2454
tp2455
a(Vwith
p2456
Vjuly
p2457
tp2458
a(Vwith
p2459
Vkat
p2460
tp2461
a(Vwith
p2462
Vlab
p2463
tp2464
a(Vwith
p2465
Vlaur
p2466
tp2467
a(Vwith
p2468
Vliv
p2469
tp2470
a(Vwith
p2471
Vmast
p2472
tp2473
a(Vwith
p2474
Vmicro
p2475
tp2476
a(Vwith
p2477
Vnon
p2478
tp2479
a(Vwith
p2480
Vnonny
p2481
tp2482
a(Vwith
p2483
Voliv
p2484
tp2485
a(Vwith
p2486
Vpag
p2487
tp2488
a(Vwith
p2489
Vpaig
p2490
tp2491
a(Vwith
p2492
Vpaul
p2493
tp2494
a(Vwith
p2495
Vpol
p2496
tp2497
a(Vwith
p2498
Vrobot
p2499
tp2500
a(Vwith
p2501
Vshingleton
p2502
tp2503
a(Vwith
p2504
Vsof
p2505
tp2506
a(Vwith
p2507
Vsoph
p2508
tp2509
a(g1049
g1796
tp2510
a(Vwith
p2511
Vtiz
p2512
tp2513
a(Vwith
p2514
Vtizian
p2515
tp2516
a(Vwith
p2517
Vturn
p2518
tp2519
a(Vwith
p2520
Vus
p2521
tp2522
a(g215
Vux
p2523
tp2524
a(Vwith
p2525
Vverban
p2526
tp2527
a(Vwith
p2528
Vwil
p2529
tp2530
a(Vwith
p2531
Vwilliam
p2532
tp2533
a(Vwith
p2534
Vxun
p2535
tp2536
a(g1484
Vyou
p2537
tp2538
a(Vwith
p2539
Vyoun
p2540
tp2541
a(g675
g1013
tp2542
a(g2276
Vher
p2543
tp2544
a(g200
Vher
p2545
tp2546
a(Vxun
p2547
Vthi
p2548
tp2549
a(Vxun
p2550
Vwang
p2551
tp2552
a(g2361
Vis
p2553
tp2554
a(g37
g241
tp2555
a(g912
Vnam
p2556
tp2557
a(g1757
Vchip
p2558
tp2559
a(Vyou
p2560
Vfrom
p2561
tp2562
a(g286
g623
tp2563
a(g915
Vliv
p2564
tp2565
a(Vyou
p2566
g1283
tp2567
a(Vyou
p2568
g1501
tp2569
a(Vyou
p2570
g1729
tp2571
a(Vyou
p2572
g1744
tp2573
a(g2316
g2176
tp2574
a(Vyoun
p2575
Vher
p2576
tp2577
a(Vyoun
p2578
Vthi
p2579
tp2580
as.