(dp0
S'output_tensor_length'
p1
I8
sS'classes'
p2
(lp3
Vdirection
p4
aVmeet
p5
aVnavigate
p6
aVself
p7
aVweather
p8
aVactions
p9
aVgreet
p10
aVclock
p11
asS'input_tensor_length'
p12
I202
sS'words'
p13
(lp14
V's
p15
aV1
p16
aV2
p17
aV5
p18
aVa
p19
aVafternoon
p20
aVam
p21
aVan
p22
aVappoint
p23
aVar
p24
aVash
p25
aVashley
p26
aVbathroom
p27
aVbattery
p28
aVbianco
p29
aVbin
p30
aVblak
p31
aVblock
p32
aVblockchain
p33
aVbox
p34
aVbump
p35
aVcan
p36
aVcarlo
p37
aVcarry
p38
aVchain
p39
aVchip
p40
aVcoordin
p41
aVdad
p42
aVdaddy
p43
aVdan
p44
aVdat
p45
aVdavid
p46
aVday
p47
aVdesk
p48
aVdirect
p49
aVdo
p50
aVengin
p51
aVenrol
p52
aVev
p53
aVexpery
p54
aVfac
p55
aVfar
p56
aVfind
p57
aVfist
p58
aVfiv
p59
aVflo
p60
aVfrom
p61
aVfront
p62
aVgar
p63
aVgen
p64
aVget
p65
aVgild
p66
aVglass
p67
aVgo
p68
aVgoing
p69
aVgood
p70
aVguid
p71
aVhand
p72
aVhav
p73
aVhello
p74
aVhelp
p75
aVher
p76
aVhi
p77
aVhigh
p78
aVhigh-five
p79
aVhom
p80
aVhoney
p81
aVhong
p82
aVhow
p83
aVhug
p84
aVi
p85
aVide
p86
aVidea
p87
aVin
p88
aVinnov
p89
aVis
p90
aVit
p91
aVitwh
p92
aVjobin
p93
aVjoe
p94
aVjohn
p95
aVjos
p96
aVjudg
p97
aVjuly
p98
aVkat
p99
aVkitch
p100
aVklail
p101
aVlab
p102
aVlam
p103
aVlaur
p104
aVlet
p105
aVlevel
p106
aVlik
p107
aVliv
p108
aVman
p109
aVmast
p110
aVme
p111
aVmeet
p112
aVmicro
p113
aVmon
p114
aVmorn
p115
aVmy
p116
aVnam
p117
aVnext
p118
aVnight
p119
aVnon
p120
aVnonny
p121
aVnow
p122
aVnurs
p123
aVof
p124
aVoliv
p125
aVon
p126
aVoutsid
p127
aVpag
p128
aVpaig
p129
aVpalm
p130
aVpantry
p131
aVpar
p132
aVpaul
p133
aVphillip
p134
aVphoto
p135
aVpict
p136
aVpleas
p137
aVplug
p138
aVpol
p139
aVpump
p140
aVr
p141
aVrain
p142
aVrainco
p143
aVrainy
p144
aVreal
p145
aVreceiv
p146
aVreg
p147
aVrememb
p148
aVrest
p149
aVrestroom
p150
aVrey
p151
aVrobot
p152
aVroom
p153
aVsee
p154
aVselfy
p155
aVshak
p156
aVshingleton
p157
aVshould
p158
aVshow
p159
aVsof
p160
aVsom
p161
aVsoph
p162
aVstat
p163
aVsunny
p164
aVtak
p165
aVtalbot
p166
aVtank
p167
aVtel
p168
aVtemp
p169
aVtest
p170
aVthank
p171
aVthe
p172
aVther
p173
aVthi
p174
aVthink
p175
aVtim
p176
aVtiz
p177
aVtizian
p178
aVto
p179
aVtoday
p180
aVtogeth
p181
aVtoilet
p182
aVturn
p183
aVtwo
p184
aVu
p185
aVumbrell
p186
aVup
p187
aVus
p188
aVux
p189
aVv
p190
aVverban
p191
aVvirt
p192
aVvr
p193
aVwang
p194
aVwant
p195
aVwash
p196
aVwashroom
p197
aVwat
p198
aVway
p199
aVwe
p200
aVweath
p201
aVweek
p202
aVwhat
p203
aVwher
p204
aVwhich
p205
aVwho
p206
aVwil
p207
aVwilliam
p208
aVwith
p209
aVwould
p210
aVx
p211
aVxun
p212
aVyear
p213
aVyo
p214
aVyou
p215
aVyoun
p216
as.