(dp0
S'output_tensor_length'
p1
I8
sS'classes'
p2
(lp3
Vdirection
p4
aVmeet
p5
aVnavigate
p6
aVself
p7
aVweather
p8
aVactions
p9
aVgreet
p10
aVclock
p11
asS'input_tensor_length'
p12
I202
sS'words'
p13
(lp14
V's
p15
aV1
p16
aV2
p17
aV5
p18
aVa
p19
aVafternoon
p20
aVam
p21
aVan
p22
aVappoint
p23
aVar
p24
aVash
p25
aVashley
p26
aVbathroom
p27
aVbattery
p28
aVbianco
p29
aVbin
p30
aVblak
p31
aVblock
p32
aVblockchain
p33
aVbox
p34
aVbump
p35
aVcan
p36
aVcarlo
p37
aVcarry
p38
aVchain
p39
aVchip
p40
aVcoordin
p41
aVdad
p42
aVdaddy
p43
aVdan
p44
aVdat
p45
aVdavid
p46
aVday
p47
aVdesk
p48
aVdirect
p49
aVdo
p50
aVengin
p51
aVenrol
p52
aVev
p53
aVexpery
p54
aVfac
p55
aVfar
p56
aVfind
p57
aVfist
p58
aVfiv
p59
aVflo
p60
aVfrom
p61
aVfront
p62
aVgar
p63
aVgen
p64
aVget
p65
aVgild
p66
aVglass
p67
aVgo
p68
aVgoing
p69
aVgood
p70
aVguid
p71
aVhand
p72
aVhav
p73
aVhello
p74
aVhelp
p75
aVhenk
p76
aVher
p77
aVhi
p78
aVhigh
p79
aVhom
p80
aVhoney
p81
aVhong
p82
aVhow
p83
aVhug
p84
aVi
p85
aVide
p86
aVidea
p87
aVin
p88
aVinnov
p89
aVis
p90
aVit
p91
aVitwh
p92
aVjobin
p93
aVjoe
p94
aVjohn
p95
aVjos
p96
aVjudg
p97
aVjuly
p98
aVkat
p99
aVkitch
p100
aVklail
p101
aVkleynh
p102
aVlab
p103
aVlam
p104
aVlaur
p105
aVlet
p106
aVlevel
p107
aVlik
p108
aVliv
p109
aVman
p110
aVmast
p111
aVme
p112
aVmeet
p113
aVmicro
p114
aVmon
p115
aVmorn
p116
aVmy
p117
aVnam
p118
aVnext
p119
aVnight
p120
aVnon
p121
aVnonny
p122
aVnow
p123
aVnurs
p124
aVof
p125
aVoliv
p126
aVon
p127
aVoutsid
p128
aVpag
p129
aVpaig
p130
aVpalm
p131
aVpantry
p132
aVpar
p133
aVpaul
p134
aVphillip
p135
aVphoto
p136
aVpict
p137
aVpleas
p138
aVplug
p139
aVpol
p140
aVpump
p141
aVr
p142
aVrain
p143
aVrainco
p144
aVrainy
p145
aVreal
p146
aVreceiv
p147
aVreg
p148
aVrememb
p149
aVrest
p150
aVrestroom
p151
aVrey
p152
aVrobot
p153
aVroom
p154
aVsee
p155
aVselfy
p156
aVshak
p157
aVshingleton
p158
aVshould
p159
aVshow
p160
aVsof
p161
aVsom
p162
aVsoph
p163
aVstat
p164
aVsunny
p165
aVtak
p166
aVtalbot
p167
aVtank
p168
aVtel
p169
aVtemp
p170
aVtest
p171
aVthank
p172
aVthe
p173
aVther
p174
aVthink
p175
aVtim
p176
aVtiz
p177
aVtizian
p178
aVto
p179
aVtoday
p180
aVtogeth
p181
aVtoilet
p182
aVturn
p183
aVtwo
p184
aVu
p185
aVumbrell
p186
aVup
p187
aVus
p188
aVux
p189
aVv
p190
aVverban
p191
aVvirt
p192
aVvr
p193
aVwang
p194
aVwant
p195
aVwash
p196
aVwashroom
p197
aVwat
p198
aVway
p199
aVwe
p200
aVweath
p201
aVweek
p202
aVwhat
p203
aVwher
p204
aVwhich
p205
aVwho
p206
aVwil
p207
aVwilliam
p208
aVwith
p209
aVwould
p210
aVx
p211
aVxun
p212
aVyear
p213
aVyo
p214
aVyou
p215
aVyoun
p216
as.